; Function Attrs: nounwind sspstrong uwtable
define internal i64 @rb_deflate_s_allocate(i64 noundef %0) #0 {
  %2 = tail call i64 @rb_data_typed_object_zalloc(i64 noundef %0, i64 noundef 152, ptr noundef nonnull @zstream_data_type) #18
  %3 = inttoptr i64 %2 to ptr
  %4 = getelementptr inbounds nuw i8, ptr %3, i64 24
  %5 = load i64, ptr %4, align 8, !tbaa !76
  %6 = and i64 %5, 2
  %.not.i.i = icmp eq i64 %6, 0
  %7 = getelementptr inbounds nuw i8, ptr %3, i64 32
  br i1 %.not.i.i, label %8, label %zstream_new.exit

8:                                                ; preds = %1
  %9 = load ptr, ptr %7, align 8, !tbaa !79
  br label %zstream_new.exit

zstream_new.exit:                                 ; preds = %1, %8
  %10 = phi ptr [ %9, %8 ], [ %7, %1 ]
  store i64 0, ptr %10, align 8, !tbaa !42
  %11 = getelementptr inbounds nuw i8, ptr %10, i64 8
  store i64 4, ptr %11, align 8, !tbaa !43
  %12 = getelementptr inbounds nuw i8, ptr %10, i64 16
  store i64 4, ptr %12, align 8, !tbaa !51
  %13 = tail call i64 @rb_mutex_new() #18
  %14 = getelementptr inbounds nuw i8, ptr %10, i64 24
  store i64 %13, ptr %14, align 8, !tbaa !70
  %15 = getelementptr inbounds nuw i8, ptr %10, i64 32
  %16 = getelementptr inbounds nuw i8, ptr %10, i64 96
  store ptr @zlib_mem_alloc, ptr %16, align 8, !tbaa !71
  %17 = getelementptr inbounds nuw i8, ptr %10, i64 104
  store ptr @zlib_mem_free, ptr %17, align 8, !tbaa !72
  %18 = getelementptr inbounds nuw i8, ptr %10, i64 112
  %19 = getelementptr inbounds nuw i8, ptr %10, i64 80
  store ptr null, ptr %19, align 8, !tbaa !59
  store ptr null, ptr %15, align 8, !tbaa !74
  %20 = getelementptr inbounds nuw i8, ptr %10, i64 40
  store i32 0, ptr %20, align 8, !tbaa !75
  %21 = getelementptr inbounds nuw i8, ptr %10, i64 56
  store ptr null, ptr %21, align 8, !tbaa !47
  %22 = getelementptr inbounds nuw i8, ptr %10, i64 64
  store i32 0, ptr %22, align 8, !tbaa !36
  %23 = getelementptr inbounds nuw i8, ptr %10, i64 144
  store ptr @deflate_funcs, ptr %23, align 8, !tbaa !56
  store ptr %3, ptr %18, align 8, !tbaa !73
  ret i64 %2
}